target datalayout = "e-m:e-p270:32:32-p271:32:32-p272:64:64-i64:64-i128:128-f80:128-n8:16:32:64-S128"
target triple = "x86_64-pc-linux-gnu"

; Function Attrs: nounwind uwtable
define internal i32 @_sort_tree_count_func(ptr noundef %0, ptr noundef %1, ptr noundef %2, ptr noundef %3) #0 {
  %5 = alloca ptr, align 8
  %6 = alloca ptr, align 8
  %7 = alloca ptr, align 8
  %8 = alloca ptr, align 8
  %9 = alloca i32, align 4
  %10 = alloca i32, align 4
  store ptr %0, ptr %5, align 8, !tbaa !36
  store ptr %1, ptr %6, align 8, !tbaa !134
  store ptr %2, ptr %7, align 8, !tbaa !134
  store ptr %3, ptr %8, align 8, !tbaa !6
  call void @llvm.lifetime.start.p0(i64 4, ptr %9) #11
  store i32 0, ptr %9, align 4, !tbaa !31
  call void @llvm.lifetime.start.p0(i64 4, ptr %10) #11
  store i32 0, ptr %10, align 4, !tbaa !31
  %11 = load ptr, ptr %5, align 8, !tbaa !36
  %12 = load ptr, ptr %6, align 8, !tbaa !134
  call void (ptr, ptr, ...) @gtk_tree_model_get(ptr noundef %11, ptr noundef %12, i32 noundef 4, ptr noundef %9, i32 noundef -1)
  %13 = load ptr, ptr %5, align 8, !tbaa !36
  %14 = load ptr, ptr %7, align 8, !tbaa !134
  call void (ptr, ptr, ...) @gtk_tree_model_get(ptr noundef %13, ptr noundef %14, i32 noundef 4, ptr noundef %10, i32 noundef -1)
  %15 = load i32, ptr %10, align 4, !tbaa !31
  %16 = load i32, ptr %9, align 4, !tbaa !31
  %17 = sub i32 %15, %16
  call void @llvm.lifetime.end.p0(i64 4, ptr %10) #11
  call void @llvm.lifetime.end.p0(i64 4, ptr %9) #11
  ret i32 %17
}