; Function Attrs: nounwind uwtable
define internal i32 @_sort_tree_count_func(ptr noundef %0, ptr noundef %1, ptr noundef %2, ptr readnone captures(none) %3) #1 {
  %5 = alloca i32, align 4
  %6 = alloca i32, align 4
  call void @llvm.lifetime.start.p0(i64 4, ptr nonnull %5) #16
  store i32 0, ptr %5, align 4, !tbaa !46
  call void @llvm.lifetime.start.p0(i64 4, ptr nonnull %6) #16
  store i32 0, ptr %6, align 4, !tbaa !46
  call void (ptr, ptr, ...) @gtk_tree_model_get(ptr noundef %0, ptr noundef %1, i32 noundef 4, ptr noundef nonnull %5, i32 noundef -1) #16
  call void (ptr, ptr, ...) @gtk_tree_model_get(ptr noundef %0, ptr noundef %2, i32 noundef 4, ptr noundef nonnull %6, i32 noundef -1) #16
  %7 = load i32, ptr %6, align 4, !tbaa !46
  %8 = load i32, ptr %5, align 4, !tbaa !46
  %9 = sub i32 %7, %8
  call void @llvm.lifetime.end.p0(i64 4, ptr nonnull %6) #16
  call void @llvm.lifetime.end.p0(i64 4, ptr nonnull %5) #16
  ret i32 %9
}